target datalayout = "e-m:e-p270:32:32-p271:32:32-p272:64:64-i64:64-i128:128-f80:128-n8:16:32:64-S128"
target triple = "x86_64-pc-linux-gnu"

%struct.psa_crypto_local_input_s = type { ptr, i64 }
%struct.mbedtls_cipher_context_t = type { ptr, i32, i32, ptr, ptr, [16 x i8], i64, [16 x i8], i64, ptr, ptr }
%struct.psa_aead_operation_s = type { i32, i32, i16, i64, i64, i8, %union.psa_driver_aead_context_t }
%union.psa_driver_aead_context_t = type { %struct.mbedtls_psa_aead_operation_t }
%struct.mbedtls_psa_aead_operation_t = type { i32, i16, i8, i8, %union.anon.4 }
%union.anon.4 = type { %struct.mbedtls_gcm_context }
%struct.mbedtls_gcm_context = type { %struct.mbedtls_cipher_context_t, [16 x [2 x i64]], i64, i64, [16 x i8], [16 x i8], [16 x i8], i8, i8 }

; Function Attrs: inlinehint nounwind uwtable
define internal i32 @psa_driver_wrapper_aead_abort(ptr noundef %0) #6 {
  %2 = alloca i32, align 4
  %3 = alloca ptr, align 8
  store ptr %0, ptr %3, align 8, !tbaa !97
  %4 = load ptr, ptr %3, align 8, !tbaa !97
  %5 = getelementptr inbounds nuw %struct.psa_aead_operation_s, ptr %4, i32 0, i32 0
  %6 = load i32, ptr %5, align 8, !tbaa !99
  switch i32 %6, label %11 [
    i32 1, label %7
  ]

7:                                                ; preds = %1
  %8 = load ptr, ptr %3, align 8, !tbaa !97
  %9 = getelementptr inbounds nuw %struct.psa_aead_operation_s, ptr %8, i32 0, i32 6
  %10 = call i32 @mbedtls_psa_aead_abort(ptr noundef %9)
  store i32 %10, ptr %2, align 4
  br label %12

11:                                               ; preds = %1
  store i32 -135, ptr %2, align 4
  br label %12

12:                                               ; preds = %11, %7
  %13 = load i32, ptr %2, align 4
  ret i32 %13
}

; Function Attrs: nounwind uwtable
define internal i32 @psa_crypto_copy_input(ptr noundef %0, i64 noundef %1, ptr noundef %2, i64 noundef %3) #0 {
  %5 = alloca i32, align 4
  %6 = alloca ptr, align 8
  %7 = alloca i64, align 8
  %8 = alloca ptr, align 8
  %9 = alloca i64, align 8
  store ptr %0, ptr %6, align 8, !tbaa !29
  store i64 %1, ptr %7, align 8, !tbaa !20
  store ptr %2, ptr %8, align 8, !tbaa !29
  store i64 %3, ptr %9, align 8, !tbaa !20
  %10 = load i64, ptr %7, align 8, !tbaa !20
  %11 = load i64, ptr %9, align 8, !tbaa !20
  %12 = icmp ugt i64 %10, %11
  br i1 %12, label %13, label %14

13:                                               ; preds = %4
  store i32 -151, ptr %5, align 4
  br label %22

14:                                               ; preds = %4
  %15 = load i64, ptr %7, align 8, !tbaa !20
  %16 = icmp ugt i64 %15, 0
  br i1 %16, label %17, label %21

17:                                               ; preds = %14
  %18 = load ptr, ptr %8, align 8, !tbaa !29
  %19 = load ptr, ptr %6, align 8, !tbaa !29
  %20 = load i64, ptr %7, align 8, !tbaa !20
  call void @llvm.memcpy.p0.p0.i64(ptr align 1 %18, ptr align 1 %19, i64 %20, i1 false)
  br label %21

21:                                               ; preds = %17, %14
  store i32 0, ptr %5, align 4
  br label %22

22:                                               ; preds = %21, %13
  %23 = load i32, ptr %5, align 4
  ret i32 %23
}

; Function Attrs: nounwind uwtable
define hidden void @psa_crypto_local_input_free(ptr noundef %0) #0 {
  %2 = alloca ptr, align 8
  store ptr %0, ptr %2, align 8, !tbaa !59
  %3 = load ptr, ptr %2, align 8, !tbaa !59
  %4 = getelementptr inbounds nuw %struct.psa_crypto_local_input_s, ptr %3, i32 0, i32 0
  %5 = load ptr, ptr %4, align 8, !tbaa !55
  call void @free(ptr noundef %5) #8
  %6 = load ptr, ptr %2, align 8, !tbaa !59
  %7 = getelementptr inbounds nuw %struct.psa_crypto_local_input_s, ptr %6, i32 0, i32 0
  store ptr null, ptr %7, align 8, !tbaa !55
  %8 = load ptr, ptr %2, align 8, !tbaa !59
  %9 = getelementptr inbounds nuw %struct.psa_crypto_local_input_s, ptr %8, i32 0, i32 1
  store i64 0, ptr %9, align 8, !tbaa !61
  ret void
}

; Function Attrs: nounwind uwtable
define hidden i32 @psa_aead_abort(ptr noundef %0) #0 {
  %2 = alloca i32, align 4
  %3 = alloca ptr, align 8
  %4 = alloca i32, align 4
  %5 = alloca i32, align 4
  store ptr %0, ptr %3, align 8, !tbaa !97
  call void @llvm.lifetime.start.p0(i64 4, ptr %4) #8
  store i32 -151, ptr %4, align 4, !tbaa !3
  %6 = load ptr, ptr %3, align 8, !tbaa !97
  %7 = getelementptr inbounds nuw %struct.psa_aead_operation_s, ptr %6, i32 0, i32 0
  %8 = load i32, ptr %7, align 8, !tbaa !99
  %9 = icmp eq i32 %8, 0
  br i1 %9, label %10, label %11

10:                                               ; preds = %1
  store i32 0, ptr %2, align 4
  store i32 1, ptr %5, align 4
  br label %16

11:                                               ; preds = %1
  %12 = load ptr, ptr %3, align 8, !tbaa !97
  %13 = call i32 @psa_driver_wrapper_aead_abort(ptr noundef %12)
  store i32 %13, ptr %4, align 4, !tbaa !3
  %14 = load ptr, ptr %3, align 8, !tbaa !97
  call void @llvm.memset.p0.i64(ptr align 8 %14, i8 0, i64 472, i1 false)
  %15 = load i32, ptr %4, align 4, !tbaa !3
  store i32 %15, ptr %2, align 4
  store i32 1, ptr %5, align 4
  br label %16

16:                                               ; preds = %11, %10
  call void @llvm.lifetime.end.p0(i64 4, ptr %4) #8
  %17 = load i32, ptr %2, align 4
  ret i32 %17
}

; Function Attrs: inlinehint nounwind uwtable
define internal i32 @psa_driver_wrapper_aead_update_ad(ptr noundef %0, ptr noundef %1, i64 noundef %2) #6 {
  %4 = alloca i32, align 4
  %5 = alloca ptr, align 8
  %6 = alloca ptr, align 8
  %7 = alloca i64, align 8
  store ptr %0, ptr %5, align 8, !tbaa !97
  store ptr %1, ptr %6, align 8, !tbaa !29
  store i64 %2, ptr %7, align 8, !tbaa !20
  %8 = load ptr, ptr %5, align 8, !tbaa !97
  %9 = getelementptr inbounds nuw %struct.psa_aead_operation_s, ptr %8, i32 0, i32 0
  %10 = load i32, ptr %9, align 8, !tbaa !99
  switch i32 %10, label %17 [
    i32 1, label %11
  ]

11:                                               ; preds = %3
  %12 = load ptr, ptr %5, align 8, !tbaa !97
  %13 = getelementptr inbounds nuw %struct.psa_aead_operation_s, ptr %12, i32 0, i32 6
  %14 = load ptr, ptr %6, align 8, !tbaa !29
  %15 = load i64, ptr %7, align 8, !tbaa !20
  %16 = call i32 @mbedtls_psa_aead_update_ad(ptr noundef %13, ptr noundef %14, i64 noundef %15)
  store i32 %16, ptr %4, align 4
  br label %18

17:                                               ; preds = %3
  store i32 -135, ptr %4, align 4
  br label %18

18:                                               ; preds = %17, %11
  %19 = load i32, ptr %4, align 4
  ret i32 %19
}

; Function Attrs: nounwind uwtable
define hidden i32 @psa_crypto_local_input_alloc(ptr noundef %0, i64 noundef %1, ptr noundef %2) #0 {
  %4 = alloca i32, align 4
  %5 = alloca ptr, align 8
  %6 = alloca i64, align 8
  %7 = alloca ptr, align 8
  %8 = alloca i32, align 4
  %9 = alloca %struct.psa_crypto_local_input_s, align 8
  %10 = alloca i32, align 4
  store ptr %0, ptr %5, align 8, !tbaa !29
  store i64 %1, ptr %6, align 8, !tbaa !20
  store ptr %2, ptr %7, align 8, !tbaa !59
  call void @llvm.lifetime.start.p0(i64 4, ptr %8) #8
  %11 = load ptr, ptr %7, align 8, !tbaa !59
  %12 = getelementptr inbounds nuw %struct.psa_crypto_local_input_s, ptr %9, i32 0, i32 0
  store ptr null, ptr %12, align 8, !tbaa !55
  %13 = getelementptr inbounds nuw %struct.psa_crypto_local_input_s, ptr %9, i32 0, i32 1
  store i64 0, ptr %13, align 8, !tbaa !61
  call void @llvm.memcpy.p0.p0.i64(ptr align 8 %11, ptr align 8 %9, i64 16, i1 false), !tbaa.struct !62
  %14 = load i64, ptr %6, align 8, !tbaa !20
  %15 = icmp eq i64 %14, 0
  br i1 %15, label %16, label %17

16:                                               ; preds = %3
  store i32 0, ptr %4, align 4
  store i32 1, ptr %10, align 4
  br label %53

17:                                               ; preds = %3
  %18 = load i64, ptr %6, align 8, !tbaa !20
  %19 = call noalias ptr @calloc(i64 noundef %18, i64 noundef 1) #9
  %20 = load ptr, ptr %7, align 8, !tbaa !59
  %21 = getelementptr inbounds nuw %struct.psa_crypto_local_input_s, ptr %20, i32 0, i32 0
  store ptr %19, ptr %21, align 8, !tbaa !55
  %22 = load ptr, ptr %7, align 8, !tbaa !59
  %23 = getelementptr inbounds nuw %struct.psa_crypto_local_input_s, ptr %22, i32 0, i32 0
  %24 = load ptr, ptr %23, align 8, !tbaa !55
  %25 = icmp eq ptr %24, null
  br i1 %25, label %26, label %27

26:                                               ; preds = %17
  store i32 -141, ptr %4, align 4
  store i32 1, ptr %10, align 4
  br label %53

27:                                               ; preds = %17
  %28 = load i64, ptr %6, align 8, !tbaa !20
  %29 = load ptr, ptr %7, align 8, !tbaa !59
  %30 = getelementptr inbounds nuw %struct.psa_crypto_local_input_s, ptr %29, i32 0, i32 1
  store i64 %28, ptr %30, align 8, !tbaa !61
  %31 = load ptr, ptr %5, align 8, !tbaa !29
  %32 = load i64, ptr %6, align 8, !tbaa !20
  %33 = load ptr, ptr %7, align 8, !tbaa !59
  %34 = getelementptr inbounds nuw %struct.psa_crypto_local_input_s, ptr %33, i32 0, i32 0
  %35 = load ptr, ptr %34, align 8, !tbaa !55
  %36 = load ptr, ptr %7, align 8, !tbaa !59
  %37 = getelementptr inbounds nuw %struct.psa_crypto_local_input_s, ptr %36, i32 0, i32 1
  %38 = load i64, ptr %37, align 8, !tbaa !61
  %39 = call i32 @psa_crypto_copy_input(ptr noundef %31, i64 noundef %32, ptr noundef %35, i64 noundef %38)
  store i32 %39, ptr %8, align 4, !tbaa !3
  %40 = load i32, ptr %8, align 4, !tbaa !3
  %41 = icmp ne i32 %40, 0
  br i1 %41, label %42, label %43

42:                                               ; preds = %27
  br label %44

43:                                               ; preds = %27
  store i32 0, ptr %4, align 4
  store i32 1, ptr %10, align 4
  br label %53

44:                                               ; preds = %42
  %45 = load ptr, ptr %7, align 8, !tbaa !59
  %46 = getelementptr inbounds nuw %struct.psa_crypto_local_input_s, ptr %45, i32 0, i32 0
  %47 = load ptr, ptr %46, align 8, !tbaa !55
  call void @free(ptr noundef %47) #8
  %48 = load ptr, ptr %7, align 8, !tbaa !59
  %49 = getelementptr inbounds nuw %struct.psa_crypto_local_input_s, ptr %48, i32 0, i32 0
  store ptr null, ptr %49, align 8, !tbaa !55
  %50 = load ptr, ptr %7, align 8, !tbaa !59
  %51 = getelementptr inbounds nuw %struct.psa_crypto_local_input_s, ptr %50, i32 0, i32 1
  store i64 0, ptr %51, align 8, !tbaa !61
  %52 = load i32, ptr %8, align 4, !tbaa !3
  store i32 %52, ptr %4, align 4
  store i32 1, ptr %10, align 4
  br label %53

53:                                               ; preds = %44, %43, %26, %16
  call void @llvm.lifetime.end.p0(i64 4, ptr %8) #8
  %54 = load i32, ptr %4, align 4
  ret i32 %54
}

; Function Attrs: nounwind uwtable
define hidden i32 @psa_aead_update_ad(ptr noundef %0, ptr noundef %1, i64 noundef %2) #0 {
  %4 = alloca ptr, align 8
  %5 = alloca ptr, align 8
  %6 = alloca i64, align 8
  %7 = alloca i32, align 4
  %8 = alloca %struct.psa_crypto_local_input_s, align 8
  %9 = alloca ptr, align 8
  store ptr %0, ptr %4, align 8, !tbaa !97
  store ptr %1, ptr %5, align 8, !tbaa !29
  store i64 %2, ptr %6, align 8, !tbaa !20
  call void @llvm.lifetime.start.p0(i64 4, ptr %7) #8
  store i32 -151, ptr %7, align 4, !tbaa !3
  call void @llvm.lifetime.start.p0(i64 16, ptr %8) #8
  call void @llvm.memset.p0.i64(ptr align 8 %8, i8 0, i64 16, i1 false)
  call void @llvm.lifetime.start.p0(i64 8, ptr %9) #8
  store ptr null, ptr %9, align 8, !tbaa !29
  %10 = load ptr, ptr %5, align 8, !tbaa !29
  %11 = load i64, ptr %6, align 8, !tbaa !20
  %12 = call i32 @psa_crypto_local_input_alloc(ptr noundef %10, i64 noundef %11, ptr noundef %8)
  store i32 %12, ptr %7, align 4, !tbaa !3
  %13 = load i32, ptr %7, align 4, !tbaa !3
  %14 = icmp ne i32 %13, 0
  br i1 %14, label %15, label %16

15:                                               ; preds = %3
  br label %77

16:                                               ; preds = %3
  %17 = getelementptr inbounds nuw %struct.psa_crypto_local_input_s, ptr %8, i32 0, i32 0
  %18 = load ptr, ptr %17, align 8, !tbaa !55
  store ptr %18, ptr %9, align 8, !tbaa !29
  %19 = load ptr, ptr %4, align 8, !tbaa !97
  %20 = getelementptr inbounds nuw %struct.psa_aead_operation_s, ptr %19, i32 0, i32 0
  %21 = load i32, ptr %20, align 8, !tbaa !99
  %22 = icmp eq i32 %21, 0
  br i1 %22, label %23, label %24

23:                                               ; preds = %16
  store i32 -137, ptr %7, align 4, !tbaa !3
  br label %77

24:                                               ; preds = %16
  %25 = load ptr, ptr %4, align 8, !tbaa !97
  %26 = getelementptr inbounds nuw %struct.psa_aead_operation_s, ptr %25, i32 0, i32 5
  %27 = load i8, ptr %26, align 8
  %28 = and i8 %27, 1
  %29 = zext i8 %28 to i32
  %30 = icmp ne i32 %29, 0
  br i1 %30, label %31, label %39

31:                                               ; preds = %24
  %32 = load ptr, ptr %4, align 8, !tbaa !97
  %33 = getelementptr inbounds nuw %struct.psa_aead_operation_s, ptr %32, i32 0, i32 5
  %34 = load i8, ptr %33, align 8
  %35 = lshr i8 %34, 3
  %36 = and i8 %35, 1
  %37 = zext i8 %36 to i32
  %38 = icmp ne i32 %37, 0
  br i1 %38, label %39, label %40

39:                                               ; preds = %31, %24
  store i32 -137, ptr %7, align 4, !tbaa !3
  br label %77

40:                                               ; preds = %31
  %41 = load i64, ptr %6, align 8, !tbaa !20
  %42 = icmp eq i64 %41, 0
  br i1 %42, label %43, label %44

43:                                               ; preds = %40
  store i32 0, ptr %7, align 4, !tbaa !3
  br label %77

44:                                               ; preds = %40
  %45 = load ptr, ptr %4, align 8, !tbaa !97
  %46 = getelementptr inbounds nuw %struct.psa_aead_operation_s, ptr %45, i32 0, i32 5
  %47 = load i8, ptr %46, align 8
  %48 = lshr i8 %47, 1
  %49 = and i8 %48, 1
  %50 = zext i8 %49 to i32
  %51 = icmp ne i32 %50, 0
  br i1 %51, label %52, label %65

52:                                               ; preds = %44
  %53 = load ptr, ptr %4, align 8, !tbaa !97
  %54 = getelementptr inbounds nuw %struct.psa_aead_operation_s, ptr %53, i32 0, i32 3
  %55 = load i64, ptr %54, align 8, !tbaa !103
  %56 = load i64, ptr %6, align 8, !tbaa !20
  %57 = icmp ult i64 %55, %56
  br i1 %57, label %58, label %59

58:                                               ; preds = %52
  store i32 -135, ptr %7, align 4, !tbaa !3
  br label %77

59:                                               ; preds = %52
  %60 = load i64, ptr %6, align 8, !tbaa !20
  %61 = load ptr, ptr %4, align 8, !tbaa !97
  %62 = getelementptr inbounds nuw %struct.psa_aead_operation_s, ptr %61, i32 0, i32 3
  %63 = load i64, ptr %62, align 8, !tbaa !103
  %64 = sub i64 %63, %60
  store i64 %64, ptr %62, align 8, !tbaa !103
  br label %72

65:                                               ; preds = %44
  %66 = load ptr, ptr %4, align 8, !tbaa !97
  %67 = getelementptr inbounds nuw %struct.psa_aead_operation_s, ptr %66, i32 0, i32 1
  %68 = load i32, ptr %67, align 4, !tbaa !102
  %69 = icmp eq i32 %68, 89129216
  br i1 %69, label %70, label %71

70:                                               ; preds = %65
  store i32 -137, ptr %7, align 4, !tbaa !3
  br label %77

71:                                               ; preds = %65
  br label %72

72:                                               ; preds = %71, %59
  %73 = load ptr, ptr %4, align 8, !tbaa !97
  %74 = load ptr, ptr %9, align 8, !tbaa !29
  %75 = load i64, ptr %6, align 8, !tbaa !20
  %76 = call i32 @psa_driver_wrapper_aead_update_ad(ptr noundef %73, ptr noundef %74, i64 noundef %75)
  store i32 %76, ptr %7, align 4, !tbaa !3
  br label %77

77:                                               ; preds = %72, %70, %58, %43, %39, %23, %15
  %78 = load i32, ptr %7, align 4, !tbaa !3
  %79 = icmp eq i32 %78, 0
  br i1 %79, label %80, label %86

80:                                               ; preds = %77
  %81 = load ptr, ptr %4, align 8, !tbaa !97
  %82 = getelementptr inbounds nuw %struct.psa_aead_operation_s, ptr %81, i32 0, i32 5
  %83 = load i8, ptr %82, align 8
  %84 = and i8 %83, -5
  %85 = or i8 %84, 4
  store i8 %85, ptr %82, align 8
  br label %89

86:                                               ; preds = %77
  %87 = load ptr, ptr %4, align 8, !tbaa !97
  %88 = call i32 @psa_aead_abort(ptr noundef %87)
  br label %89

89:                                               ; preds = %86, %80
  store ptr null, ptr %9, align 8, !tbaa !29
  call void @psa_crypto_local_input_free(ptr noundef %8)
  %90 = load i32, ptr %7, align 4, !tbaa !3
  call void @llvm.lifetime.end.p0(i64 8, ptr %9) #8
  call void @llvm.lifetime.end.p0(i64 16, ptr %8) #8
  call void @llvm.lifetime.end.p0(i64 4, ptr %7) #8
  ret i32 %90
}