; Function Attrs: nounwind uwtable
define hidden i32 @psa_aead_update_ad(ptr noundef %0, ptr noundef readonly captures(none) %1, i64 noundef %2) local_unnamed_addr #7 {
  %4 = icmp eq i64 %2, 0
  br i1 %4, label %9, label %5

5:                                                ; preds = %3
  %6 = tail call noalias ptr @calloc(i64 noundef %2, i64 noundef 1) #21
  %7 = icmp eq ptr %6, null
  br i1 %7, label %psa_crypto_local_input_alloc.exit.thread38, label %8

8:                                                ; preds = %5
  tail call void @llvm.memcpy.p0.p0.i64(ptr noundef nonnull align 1 dereferenceable(1) %6, ptr noundef nonnull readonly align 1 dereferenceable(1) %1, i64 range(i64 1, 0) %2, i1 false)
  br label %9

9:                                                ; preds = %3, %8
  %.sroa.0.0.ph = phi ptr [ %6, %8 ], [ null, %3 ]
  %10 = load i32, ptr %0, align 8, !tbaa !68
  %11 = icmp eq i32 %10, 0
  br i1 %11, label %psa_aead_abort.exit, label %12

12:                                               ; preds = %9
  %13 = getelementptr inbounds nuw i8, ptr %0, i64 32
  %14 = load i8, ptr %13, align 8
  %15 = and i8 %14, 9
  %or.cond = icmp eq i8 %15, 1
  br i1 %or.cond, label %16, label %psa_crypto_local_input_alloc.exit.thread38

16:                                               ; preds = %12
  br i1 %4, label %psa_crypto_local_input_alloc.exit.thread45, label %17

17:                                               ; preds = %16
  %18 = and i8 %14, 2
  %.not24 = icmp eq i8 %18, 0
  br i1 %.not24, label %25, label %19

19:                                               ; preds = %17
  %20 = getelementptr inbounds nuw i8, ptr %0, i64 16
  %21 = load i64, ptr %20, align 8, !tbaa !72
  %22 = icmp ult i64 %21, %2
  br i1 %22, label %psa_crypto_local_input_alloc.exit.thread38, label %23

23:                                               ; preds = %19
  %24 = sub nuw i64 %21, %2
  store i64 %24, ptr %20, align 8, !tbaa !72
  br label %29

25:                                               ; preds = %17
  %26 = getelementptr inbounds nuw i8, ptr %0, i64 4
  %27 = load i32, ptr %26, align 4, !tbaa !71
  %28 = icmp eq i32 %27, 89129216
  br i1 %28, label %psa_crypto_local_input_alloc.exit.thread38, label %29

29:                                               ; preds = %25, %23
  %cond.i = icmp eq i32 %10, 1
  br i1 %cond.i, label %psa_crypto_local_input_alloc.exit, label %psa_crypto_local_input_alloc.exit.thread38

psa_crypto_local_input_alloc.exit:                ; preds = %29
  %30 = getelementptr inbounds nuw i8, ptr %0, i64 40
  %31 = tail call i32 @mbedtls_psa_aead_update_ad(ptr noundef nonnull %30, ptr noundef %.sroa.0.0.ph, i64 noundef range(i64 1, 0) %2) #22
  %32 = icmp eq i32 %31, 0
  br i1 %32, label %psa_crypto_local_input_alloc.exit.psa_crypto_local_input_alloc.exit.thread45_crit_edge, label %psa_crypto_local_input_alloc.exit.thread38

psa_crypto_local_input_alloc.exit.psa_crypto_local_input_alloc.exit.thread45_crit_edge: ; preds = %psa_crypto_local_input_alloc.exit
  %.pre = load i8, ptr %13, align 8
  br label %psa_crypto_local_input_alloc.exit.thread45

psa_crypto_local_input_alloc.exit.thread45:       ; preds = %psa_crypto_local_input_alloc.exit.psa_crypto_local_input_alloc.exit.thread45_crit_edge, %16
  %33 = phi i8 [ %.pre, %psa_crypto_local_input_alloc.exit.psa_crypto_local_input_alloc.exit.thread45_crit_edge ], [ %14, %16 ]
  %34 = or i8 %33, 4
  store i8 %34, ptr %13, align 8
  br label %psa_aead_abort.exit

psa_crypto_local_input_alloc.exit.thread38:       ; preds = %29, %5, %25, %19, %12, %psa_crypto_local_input_alloc.exit
  %.044.ph = phi i32 [ -137, %12 ], [ -135, %19 ], [ -137, %25 ], [ -141, %5 ], [ -135, %29 ], [ %31, %psa_crypto_local_input_alloc.exit ]
  %.sroa.0.03642.ph = phi ptr [ %.sroa.0.0.ph, %12 ], [ %.sroa.0.0.ph, %19 ], [ %.sroa.0.0.ph, %25 ], [ null, %5 ], [ %.sroa.0.0.ph, %29 ], [ %.sroa.0.0.ph, %psa_crypto_local_input_alloc.exit ]
  %.pr = load i32, ptr %0, align 8, !tbaa !68
  switch i32 %.pr, label %psa_driver_wrapper_aead_abort.exit.i [
    i32 0, label %psa_aead_abort.exit
    i32 1, label %35
  ]

35:                                               ; preds = %psa_crypto_local_input_alloc.exit.thread38
  %36 = getelementptr inbounds nuw i8, ptr %0, i64 40
  %37 = tail call i32 @mbedtls_psa_aead_abort(ptr noundef nonnull %36) #22
  br label %psa_driver_wrapper_aead_abort.exit.i

psa_driver_wrapper_aead_abort.exit.i:             ; preds = %35, %psa_crypto_local_input_alloc.exit.thread38
  tail call void @llvm.memset.p0.i64(ptr noundef nonnull align 8 dereferenceable(472) %0, i8 0, i64 472, i1 false)
  br label %psa_aead_abort.exit

psa_aead_abort.exit:                              ; preds = %9, %psa_driver_wrapper_aead_abort.exit.i, %psa_crypto_local_input_alloc.exit.thread38, %psa_crypto_local_input_alloc.exit.thread45
  %.043 = phi i32 [ 0, %psa_crypto_local_input_alloc.exit.thread45 ], [ %.044.ph, %psa_crypto_local_input_alloc.exit.thread38 ], [ %.044.ph, %psa_driver_wrapper_aead_abort.exit.i ], [ -137, %9 ]
  %.sroa.0.03641 = phi ptr [ %.sroa.0.0.ph, %psa_crypto_local_input_alloc.exit.thread45 ], [ %.sroa.0.03642.ph, %psa_crypto_local_input_alloc.exit.thread38 ], [ %.sroa.0.03642.ph, %psa_driver_wrapper_aead_abort.exit.i ], [ %.sroa.0.0.ph, %9 ]
  tail call void @free(ptr noundef %.sroa.0.03641) #22
  ret i32 %.043
}